target datalayout = "e-m:e-p270:32:32-p271:32:32-p272:64:64-i64:64-i128:128-f80:128-n8:16:32:64-S128"
target triple = "x86_64-unknown-linux-gnu"

%"class.icu_75::UObject" = type { ptr }
%"class.icu_75::UnicodeString" = type { %"class.icu_75::Replaceable", %"union.icu_75::UnicodeString::StackBufferOrFields" }
%"class.icu_75::Replaceable" = type { %"class.icu_75::UObject" }
%"union.icu_75::UnicodeString::StackBufferOrFields" = type { %struct.anon.0, [32 x i8] }
%struct.anon.0 = type { i16, i32, i32, ptr }
%"class.icu_75::FieldPosition" = type <{ %"class.icu_75::UObject", i32, i32, i32, [4 x i8] }>
%"class.icu_75::Char16Ptr" = type { ptr }
%struct.UFieldPosition = type { i32, i32, i32 }

@_ZTVN6icu_757UObjectE = external unnamed_addr constant { [5 x ptr] }, align 8
@_ZTVN6icu_7513FieldPositionE = external unnamed_addr constant { [5 x ptr] }, align 8

; Function Attrs: mustprogress nounwind uwtable
define linkonce_odr void @_ZN6icu_757UObjectC2Ev(ptr noundef nonnull align 8 dereferenceable(8) %this) unnamed_addr #1 comdat align 2 {
entry:
  %this.addr = alloca ptr, align 8
  store ptr %this, ptr %this.addr, align 8
  %this1 = load ptr, ptr %this.addr, align 8
  store ptr getelementptr inbounds ({ [5 x ptr] }, ptr @_ZTVN6icu_757UObjectE, i32 0, i32 0, i32 2), ptr %this1, align 8
  ret void
}

; Function Attrs: mustprogress nounwind uwtable
define linkonce_odr void @_ZN6icu_759Char16PtrD2Ev(ptr noundef nonnull align 8 dereferenceable(8) %this) unnamed_addr #1 comdat align 2 {
entry:
  %this.addr = alloca ptr, align 8
  store ptr %this, ptr %this.addr, align 8
  %this1 = load ptr, ptr %this.addr, align 8
  %p_ = getelementptr inbounds %"class.icu_75::Char16Ptr", ptr %this1, i32 0, i32 0
  %0 = load ptr, ptr %p_, align 8
  call void asm sideeffect "", "rm,~{memory},~{dirflag},~{fpsr},~{flags}"(ptr %0) #8, !srcloc !4
  ret void
}

; Function Attrs: mustprogress nounwind uwtable
define linkonce_odr void @_ZN6icu_759Char16PtrC2EPDs(ptr noundef nonnull align 8 dereferenceable(8) %this, ptr noundef %p) unnamed_addr #1 comdat align 2 {
entry:
  %this.addr = alloca ptr, align 8
  %p.addr = alloca ptr, align 8
  store ptr %this, ptr %this.addr, align 8
  store ptr %p, ptr %p.addr, align 8
  %this1 = load ptr, ptr %this.addr, align 8
  %p_ = getelementptr inbounds %"class.icu_75::Char16Ptr", ptr %this1, i32 0, i32 0
  %0 = load ptr, ptr %p.addr, align 8
  store ptr %0, ptr %p_, align 8
  ret void
}

; Function Attrs: mustprogress nounwind uwtable
define linkonce_odr noundef i32 @_ZNK6icu_7513FieldPosition11getEndIndexEv(ptr noundef nonnull align 8 dereferenceable(20) %this) #1 comdat align 2 {
entry:
  %this.addr = alloca ptr, align 8
  store ptr %this, ptr %this.addr, align 8
  %this1 = load ptr, ptr %this.addr, align 8
  %fEndIndex = getelementptr inbounds %"class.icu_75::FieldPosition", ptr %this1, i32 0, i32 3
  %0 = load i32, ptr %fEndIndex, align 8
  ret i32 %0
}

; Function Attrs: mustprogress nounwind uwtable
define linkonce_odr noundef i32 @_ZNK6icu_7513FieldPosition13getBeginIndexEv(ptr noundef nonnull align 8 dereferenceable(20) %this) #1 comdat align 2 {
entry:
  %this.addr = alloca ptr, align 8
  store ptr %this, ptr %this.addr, align 8
  %this1 = load ptr, ptr %this.addr, align 8
  %fBeginIndex = getelementptr inbounds %"class.icu_75::FieldPosition", ptr %this1, i32 0, i32 2
  %0 = load i32, ptr %fBeginIndex, align 4
  ret i32 %0
}

; Function Attrs: mustprogress nounwind uwtable
define linkonce_odr noundef ptr @_ZN6icu_7511Formattable16fromUFormattableEPKPv(ptr noundef %fmt) #1 comdat align 2 {
entry:
  %fmt.addr = alloca ptr, align 8
  store ptr %fmt, ptr %fmt.addr, align 8
  %0 = load ptr, ptr %fmt.addr, align 8
  ret ptr %0
}

; Function Attrs: mustprogress nounwind uwtable
define linkonce_odr void @_ZN6icu_7513FieldPosition8setFieldEi(ptr noundef nonnull align 8 dereferenceable(20) %this, i32 noundef %f) #1 comdat align 2 {
entry:
  %this.addr = alloca ptr, align 8
  %f.addr = alloca i32, align 4
  store ptr %this, ptr %this.addr, align 8
  store i32 %f, ptr %f.addr, align 4
  %this1 = load ptr, ptr %this.addr, align 8
  %0 = load i32, ptr %f.addr, align 4
  %fField = getelementptr inbounds %"class.icu_75::FieldPosition", ptr %this1, i32 0, i32 1
  store i32 %0, ptr %fField, align 8
  ret void
}

; Function Attrs: mustprogress nounwind uwtable
define linkonce_odr void @_ZN6icu_7513FieldPositionC2Ev(ptr noundef nonnull align 8 dereferenceable(20) %this) unnamed_addr #1 comdat align 2 {
entry:
  %this.addr = alloca ptr, align 8
  store ptr %this, ptr %this.addr, align 8
  %this1 = load ptr, ptr %this.addr, align 8
  %0 = getelementptr inbounds i8, ptr %this1, i64 0
  call void @llvm.memset.p0.i64(ptr align 8 %0, i8 0, i64 8, i1 false)
  call void @_ZN6icu_757UObjectC2Ev(ptr noundef nonnull align 8 dereferenceable(8) %this1) #8
  store ptr getelementptr inbounds ({ [5 x ptr] }, ptr @_ZTVN6icu_7513FieldPositionE, i32 0, i32 0, i32 2), ptr %this1, align 8
  %fField = getelementptr inbounds %"class.icu_75::FieldPosition", ptr %this1, i32 0, i32 1
  store i32 -1, ptr %fField, align 8
  %fBeginIndex = getelementptr inbounds %"class.icu_75::FieldPosition", ptr %this1, i32 0, i32 2
  store i32 0, ptr %fBeginIndex, align 4
  %fEndIndex = getelementptr inbounds %"class.icu_75::FieldPosition", ptr %this1, i32 0, i32 3
  store i32 0, ptr %fEndIndex, align 8
  ret void
}

; Function Attrs: mustprogress nounwind uwtable
define internal noundef signext i8 @_ZL9U_FAILURE10UErrorCode(i32 noundef %code) #1 {
entry:
  %code.addr = alloca i32, align 4
  store i32 %code, ptr %code.addr, align 4
  %0 = load i32, ptr %code.addr, align 4
  %cmp = icmp sgt i32 %0, 0
  %conv = zext i1 %cmp to i8
  ret i8 %conv
}

; Function Attrs: mustprogress uwtable
define i32 @unum_formatUFormattable_75(ptr noundef %fmt, ptr noundef %number, ptr noundef %result, i32 noundef %resultLength, ptr noundef %pos, ptr noundef %status) #0 personality ptr @__gxx_personality_v0 {
entry:
  %retval = alloca i32, align 4
  %fmt.addr = alloca ptr, align 8
  %number.addr = alloca ptr, align 8
  %result.addr = alloca ptr, align 8
  %resultLength.addr = alloca i32, align 4
  %pos.addr = alloca ptr, align 8
  %status.addr = alloca ptr, align 8
  %res = alloca %"class.icu_75::UnicodeString", align 8
  %fp = alloca %"class.icu_75::FieldPosition", align 8
  %exn.slot = alloca ptr, align 8
  %ehselector.slot = alloca i32, align 4
  %agg.tmp = alloca %"class.icu_75::Char16Ptr", align 8
  store ptr %fmt, ptr %fmt.addr, align 8
  store ptr %number, ptr %number.addr, align 8
  store ptr %result, ptr %result.addr, align 8
  store i32 %resultLength, ptr %resultLength.addr, align 4
  store ptr %pos, ptr %pos.addr, align 8
  store ptr %status, ptr %status.addr, align 8
  %0 = load ptr, ptr %status.addr, align 8
  %1 = load i32, ptr %0, align 4
  %call = call noundef signext i8 @_ZL9U_FAILURE10UErrorCode(i32 noundef %1)
  %tobool = icmp ne i8 %call, 0
  br i1 %tobool, label %if.then, label %if.end

if.then:                                          ; preds = %entry
  store i32 0, ptr %retval, align 4
  br label %return

if.end:                                           ; preds = %entry
  %2 = load ptr, ptr %fmt.addr, align 8
  %cmp = icmp eq ptr %2, null
  br i1 %cmp, label %if.then6, label %lor.lhs.false

lor.lhs.false:                                    ; preds = %if.end
  %3 = load ptr, ptr %number.addr, align 8
  %cmp1 = icmp eq ptr %3, null
  br i1 %cmp1, label %if.then6, label %lor.lhs.false2

lor.lhs.false2:                                   ; preds = %lor.lhs.false
  %4 = load ptr, ptr %result.addr, align 8
  %cmp3 = icmp eq ptr %4, null
  br i1 %cmp3, label %cond.true, label %cond.false

cond.true:                                        ; preds = %lor.lhs.false2
  %5 = load i32, ptr %resultLength.addr, align 4
  %cmp4 = icmp ne i32 %5, 0
  br i1 %cmp4, label %if.then6, label %if.end7

cond.false:                                       ; preds = %lor.lhs.false2
  %6 = load i32, ptr %resultLength.addr, align 4
  %cmp5 = icmp slt i32 %6, 0
  br i1 %cmp5, label %if.then6, label %if.end7

if.then6:                                         ; preds = %cond.false, %cond.true, %lor.lhs.false, %if.end
  %7 = load ptr, ptr %status.addr, align 8
  store i32 1, ptr %7, align 4
  store i32 0, ptr %retval, align 4
  br label %return

if.end7:                                          ; preds = %cond.false, %cond.true
  %8 = load ptr, ptr %result.addr, align 8
  %9 = load i32, ptr %resultLength.addr, align 4
  call void @_ZN6icu_7513UnicodeStringC1EPDsii(ptr noundef nonnull align 8 dereferenceable(64) %res, ptr noundef %8, i32 noundef 0, i32 noundef %9)
  invoke void @_ZN6icu_7513FieldPositionC2Ev(ptr noundef nonnull align 8 dereferenceable(20) %fp)
          to label %invoke.cont unwind label %lpad

invoke.cont:                                      ; preds = %if.end7
  %10 = load ptr, ptr %pos.addr, align 8
  %cmp8 = icmp ne ptr %10, null
  br i1 %cmp8, label %if.then9, label %if.end12

if.then9:                                         ; preds = %invoke.cont
  %11 = load ptr, ptr %pos.addr, align 8
  %field = getelementptr inbounds %struct.UFieldPosition, ptr %11, i32 0, i32 0
  %12 = load i32, ptr %field, align 4
  invoke void @_ZN6icu_7513FieldPosition8setFieldEi(ptr noundef nonnull align 8 dereferenceable(20) %fp, i32 noundef %12)
          to label %invoke.cont11 unwind label %lpad10

invoke.cont11:                                    ; preds = %if.then9
  br label %if.end12

lpad:                                             ; preds = %if.end7
  %13 = landingpad { ptr, i32 }
          cleanup
  %14 = extractvalue { ptr, i32 } %13, 0
  store ptr %14, ptr %exn.slot, align 8
  %15 = extractvalue { ptr, i32 } %13, 1
  store i32 %15, ptr %ehselector.slot, align 4
  br label %ehcleanup28

lpad10:                                           ; preds = %if.end23, %invoke.cont19, %if.then18, %invoke.cont13, %if.end12, %if.then9
  %16 = landingpad { ptr, i32 }
          cleanup
  %17 = extractvalue { ptr, i32 } %16, 0
  store ptr %17, ptr %exn.slot, align 8
  %18 = extractvalue { ptr, i32 } %16, 1
  store i32 %18, ptr %ehselector.slot, align 4
  br label %ehcleanup

if.end12:                                         ; preds = %invoke.cont11, %invoke.cont
  %19 = load ptr, ptr %fmt.addr, align 8
  %20 = load ptr, ptr %number.addr, align 8
  %call14 = invoke noundef ptr @_ZN6icu_7511Formattable16fromUFormattableEPKPv(ptr noundef %20)
          to label %invoke.cont13 unwind label %lpad10

invoke.cont13:                                    ; preds = %if.end12
  %21 = load ptr, ptr %status.addr, align 8
  %vtable = load ptr, ptr %19, align 8
  %vfn = getelementptr inbounds ptr, ptr %vtable, i64 5
  %22 = load ptr, ptr %vfn, align 8
  %call16 = invoke noundef nonnull align 8 dereferenceable(64) ptr %22(ptr noundef nonnull align 8 dereferenceable(356) %19, ptr noundef nonnull align 8 dereferenceable(112) %call14, ptr noundef nonnull align 8 dereferenceable(64) %res, ptr noundef nonnull align 8 dereferenceable(20) %fp, ptr noundef nonnull align 4 dereferenceable(4) %21)
          to label %invoke.cont15 unwind label %lpad10

invoke.cont15:                                    ; preds = %invoke.cont13
  %23 = load ptr, ptr %pos.addr, align 8
  %cmp17 = icmp ne ptr %23, null
  br i1 %cmp17, label %if.then18, label %if.end23

if.then18:                                        ; preds = %invoke.cont15
  %call20 = invoke noundef i32 @_ZNK6icu_7513FieldPosition13getBeginIndexEv(ptr noundef nonnull align 8 dereferenceable(20) %fp)
          to label %invoke.cont19 unwind label %lpad10

invoke.cont19:                                    ; preds = %if.then18
  %24 = load ptr, ptr %pos.addr, align 8
  %beginIndex = getelementptr inbounds %struct.UFieldPosition, ptr %24, i32 0, i32 1
  store i32 %call20, ptr %beginIndex, align 4
  %call22 = invoke noundef i32 @_ZNK6icu_7513FieldPosition11getEndIndexEv(ptr noundef nonnull align 8 dereferenceable(20) %fp)
          to label %invoke.cont21 unwind label %lpad10

invoke.cont21:                                    ; preds = %invoke.cont19
  %25 = load ptr, ptr %pos.addr, align 8
  %endIndex = getelementptr inbounds %struct.UFieldPosition, ptr %25, i32 0, i32 2
  store i32 %call22, ptr %endIndex, align 4
  br label %if.end23

if.end23:                                         ; preds = %invoke.cont21, %invoke.cont15
  %26 = load ptr, ptr %result.addr, align 8
  invoke void @_ZN6icu_759Char16PtrC2EPDs(ptr noundef nonnull align 8 dereferenceable(8) %agg.tmp, ptr noundef %26)
          to label %invoke.cont24 unwind label %lpad10

invoke.cont24:                                    ; preds = %if.end23
  %27 = load i32, ptr %resultLength.addr, align 4
  %28 = load ptr, ptr %status.addr, align 8
  %call27 = invoke noundef i32 @_ZNK6icu_7513UnicodeString7extractENS_9Char16PtrEiR10UErrorCode(ptr noundef nonnull align 8 dereferenceable(64) %res, ptr noundef %agg.tmp, i32 noundef %27, ptr noundef nonnull align 4 dereferenceable(4) %28)
          to label %invoke.cont26 unwind label %lpad25

invoke.cont26:                                    ; preds = %invoke.cont24
  store i32 %call27, ptr %retval, align 4
  call void @_ZN6icu_759Char16PtrD2Ev(ptr noundef nonnull align 8 dereferenceable(8) %agg.tmp) #8
  call void @_ZN6icu_7513FieldPositionD1Ev(ptr noundef nonnull align 8 dereferenceable(20) %fp) #8
  call void @_ZN6icu_7513UnicodeStringD1Ev(ptr noundef nonnull align 8 dereferenceable(64) %res) #8
  br label %return

lpad25:                                           ; preds = %invoke.cont24
  %29 = landingpad { ptr, i32 }
          cleanup
  %30 = extractvalue { ptr, i32 } %29, 0
  store ptr %30, ptr %exn.slot, align 8
  %31 = extractvalue { ptr, i32 } %29, 1
  store i32 %31, ptr %ehselector.slot, align 4
  call void @_ZN6icu_759Char16PtrD2Ev(ptr noundef nonnull align 8 dereferenceable(8) %agg.tmp) #8
  br label %ehcleanup

ehcleanup:                                        ; preds = %lpad25, %lpad10
  call void @_ZN6icu_7513FieldPositionD1Ev(ptr noundef nonnull align 8 dereferenceable(20) %fp) #8
  br label %ehcleanup28

ehcleanup28:                                      ; preds = %ehcleanup, %lpad
  call void @_ZN6icu_7513UnicodeStringD1Ev(ptr noundef nonnull align 8 dereferenceable(64) %res) #8
  br label %eh.resume

return:                                           ; preds = %invoke.cont26, %if.then6, %if.then
  %32 = load i32, ptr %retval, align 4
  ret i32 %32

eh.resume:                                        ; preds = %ehcleanup28
  %exn = load ptr, ptr %exn.slot, align 8
  %sel = load i32, ptr %ehselector.slot, align 4
  %lpad.val = insertvalue { ptr, i32 } poison, ptr %exn, 0
  %lpad.val29 = insertvalue { ptr, i32 } %lpad.val, i32 %sel, 1
  resume { ptr, i32 } %lpad.val29
}