; Function Attrs: mustprogress uwtable
define noundef i32 @unum_formatUFormattable_75(ptr noundef %fmt, ptr noundef %number, ptr noundef %result, i32 noundef %resultLength, ptr noundef %pos, ptr noundef %status) local_unnamed_addr #0 personality ptr @__gxx_personality_v0 {
entry:
  %res = alloca %"class.icu_75::UnicodeString", align 8
  %fp = alloca %"class.icu_75::FieldPosition", align 8
  %agg.tmp = alloca %"class.icu_75::Char16Ptr", align 8
  %0 = load i32, ptr %status, align 4
  %cmp.i = icmp slt i32 %0, 1
  br i1 %cmp.i, label %if.end, label %return

if.end:                                           ; preds = %entry
  %cmp = icmp eq ptr %fmt, null
  %cmp1 = icmp eq ptr %number, null
  %or.cond = or i1 %cmp, %cmp1
  br i1 %or.cond, label %if.then6, label %lor.lhs.false2

lor.lhs.false2:                                   ; preds = %if.end
  %cmp3 = icmp eq ptr %result, null
  br i1 %cmp3, label %cond.true, label %cond.false

cond.true:                                        ; preds = %lor.lhs.false2
  %cmp4.not = icmp eq i32 %resultLength, 0
  br i1 %cmp4.not, label %if.end7, label %if.then6

cond.false:                                       ; preds = %lor.lhs.false2
  %cmp5 = icmp slt i32 %resultLength, 0
  br i1 %cmp5, label %if.then6, label %if.end7

if.then6:                                         ; preds = %cond.false, %cond.true, %if.end
  store i32 1, ptr %status, align 4
  br label %return

if.end7:                                          ; preds = %cond.false, %cond.true
  call void @_ZN6icu_7513UnicodeStringC1EPDsii(ptr noundef nonnull align 8 dereferenceable(64) %res, ptr noundef %result, i32 noundef 0, i32 noundef %resultLength)
  store ptr getelementptr inbounds ({ [5 x ptr] }, ptr @_ZTVN6icu_7513FieldPositionE, i64 0, i32 0, i64 2), ptr %fp, align 8
  %fField.i = getelementptr inbounds i8, ptr %fp, i64 8
  store i32 -1, ptr %fField.i, align 8
  %fBeginIndex.i = getelementptr inbounds i8, ptr %fp, i64 12
  store i32 0, ptr %fBeginIndex.i, align 4
  %fEndIndex.i = getelementptr inbounds i8, ptr %fp, i64 16
  store i32 0, ptr %fEndIndex.i, align 8
  %cmp8.not = icmp eq ptr %pos, null
  br i1 %cmp8.not, label %if.end12, label %if.then9

if.then9:                                         ; preds = %if.end7
  %1 = load i32, ptr %pos, align 4
  store i32 %1, ptr %fField.i, align 8
  br label %if.end12

lpad10:                                           ; preds = %if.end12
  %2 = landingpad { ptr, i32 }
          cleanup
  br label %ehcleanup

if.end12:                                         ; preds = %if.then9, %if.end7
  %vtable = load ptr, ptr %fmt, align 8
  %vfn = getelementptr inbounds i8, ptr %vtable, i64 40
  %3 = load ptr, ptr %vfn, align 8
  %call16 = invoke noundef nonnull align 8 dereferenceable(64) ptr %3(ptr noundef nonnull align 8 dereferenceable(356) %fmt, ptr noundef nonnull align 8 dereferenceable(112) %number, ptr noundef nonnull align 8 dereferenceable(64) %res, ptr noundef nonnull align 8 dereferenceable(20) %fp, ptr noundef nonnull align 4 dereferenceable(4) %status)
          to label %invoke.cont15 unwind label %lpad10

invoke.cont15:                                    ; preds = %if.end12
  br i1 %cmp8.not, label %if.end23, label %if.then18

if.then18:                                        ; preds = %invoke.cont15
  %beginIndex = getelementptr inbounds i8, ptr %pos, i64 4
  %4 = load <2 x i32>, ptr %fBeginIndex.i, align 4
  store <2 x i32> %4, ptr %beginIndex, align 4
  br label %if.end23

if.end23:                                         ; preds = %if.then18, %invoke.cont15
  store ptr %result, ptr %agg.tmp, align 8
  %call27 = invoke noundef i32 @_ZNK6icu_7513UnicodeString7extractENS_9Char16PtrEiR10UErrorCode(ptr noundef nonnull align 8 dereferenceable(64) %res, ptr noundef nonnull %agg.tmp, i32 noundef %resultLength, ptr noundef nonnull align 4 dereferenceable(4) %status)
          to label %invoke.cont26 unwind label %lpad25

invoke.cont26:                                    ; preds = %if.end23
  %5 = load ptr, ptr %agg.tmp, align 8
  call void asm sideeffect "", "rm,~{memory},~{dirflag},~{fpsr},~{flags}"(ptr %5) #10, !srcloc !4
  call void @_ZN6icu_7513FieldPositionD1Ev(ptr noundef nonnull align 8 dereferenceable(20) %fp) #10
  call void @_ZN6icu_7513UnicodeStringD1Ev(ptr noundef nonnull align 8 dereferenceable(64) %res) #10
  br label %return

lpad25:                                           ; preds = %if.end23
  %6 = landingpad { ptr, i32 }
          cleanup
  %7 = load ptr, ptr %agg.tmp, align 8
  call void asm sideeffect "", "rm,~{memory},~{dirflag},~{fpsr},~{flags}"(ptr %7) #10, !srcloc !4
  br label %ehcleanup

ehcleanup:                                        ; preds = %lpad25, %lpad10
  %.pn = phi { ptr, i32 } [ %6, %lpad25 ], [ %2, %lpad10 ]
  call void @_ZN6icu_7513FieldPositionD1Ev(ptr noundef nonnull align 8 dereferenceable(20) %fp) #10
  call void @_ZN6icu_7513UnicodeStringD1Ev(ptr noundef nonnull align 8 dereferenceable(64) %res) #10
  resume { ptr, i32 } %.pn

return:                                           ; preds = %entry, %invoke.cont26, %if.then6
  %retval.0 = phi i32 [ 0, %if.then6 ], [ %call27, %invoke.cont26 ], [ 0, %entry ]
  ret i32 %retval.0
}